target datalayout = "e-m:e-p270:32:32-p271:32:32-p272:64:64-i64:64-i128:128-f80:128-n8:16:32:64-S128"
target triple = "x86_64-pc-linux-gnu"

%struct.sp_int = type { i16, i16, [129 x i64] }

; Function Attrs: nounwind uwtable
define internal i32 @_sp_mul(ptr noundef %0, ptr noundef %1, ptr noundef %2) #0 {
  %4 = alloca ptr, align 8
  %5 = alloca ptr, align 8
  %6 = alloca ptr, align 8
  %7 = alloca i32, align 4
  %8 = alloca i16, align 2
  %9 = alloca i32, align 4
  %10 = alloca i16, align 2
  %11 = alloca ptr, align 8
  %12 = alloca i64, align 8
  %13 = alloca i128, align 16
  %14 = alloca i128, align 16
  %15 = alloca i128, align 16
  %16 = alloca i32, align 4
  store ptr %0, ptr %4, align 8, !tbaa !3
  store ptr %1, ptr %5, align 8, !tbaa !3
  store ptr %2, ptr %6, align 8, !tbaa !3
  call void @llvm.lifetime.start.p0(i64 4, ptr %7) #8
  store i32 0, ptr %7, align 4, !tbaa !8
  call void @llvm.lifetime.start.p0(i64 2, ptr %8) #8
  call void @llvm.lifetime.start.p0(i64 4, ptr %9) #8
  call void @llvm.lifetime.start.p0(i64 2, ptr %10) #8
  %17 = load ptr, ptr %4, align 8, !tbaa !3
  %18 = getelementptr inbounds nuw %struct.sp_int, ptr %17, i32 0, i32 0
  %19 = load i16, ptr %18, align 8, !tbaa !15
  %20 = zext i16 %19 to i32
  %21 = load ptr, ptr %5, align 8, !tbaa !3
  %22 = getelementptr inbounds nuw %struct.sp_int, ptr %21, i32 0, i32 0
  %23 = load i16, ptr %22, align 8, !tbaa !15
  %24 = zext i16 %23 to i32
  %25 = add nsw i32 %20, %24
  %26 = zext i32 %25 to i64
  %27 = call ptr @llvm.stacksave.p0()
  store ptr %27, ptr %11, align 8
  %28 = alloca i64, i64 %26, align 16
  store i64 %26, ptr %12, align 8
  %29 = load i32, ptr %7, align 4, !tbaa !8
  %30 = icmp eq i32 %29, 0
  br i1 %30, label %31, label %211

31:                                               ; preds = %3
  call void @llvm.lifetime.start.p0(i64 16, ptr %13) #8
  call void @llvm.lifetime.start.p0(i64 16, ptr %14) #8
  call void @llvm.lifetime.start.p0(i64 16, ptr %15) #8
  %32 = load ptr, ptr %4, align 8, !tbaa !3
  %33 = getelementptr inbounds nuw %struct.sp_int, ptr %32, i32 0, i32 2
  %34 = getelementptr inbounds [129 x i64], ptr %33, i64 0, i64 0
  %35 = load i64, ptr %34, align 8, !tbaa !16
  %36 = zext i64 %35 to i128
  %37 = load ptr, ptr %5, align 8, !tbaa !3
  %38 = getelementptr inbounds nuw %struct.sp_int, ptr %37, i32 0, i32 2
  %39 = getelementptr inbounds [129 x i64], ptr %38, i64 0, i64 0
  %40 = load i64, ptr %39, align 8, !tbaa !16
  %41 = zext i64 %40 to i128
  %42 = mul i128 %36, %41
  store i128 %42, ptr %13, align 16, !tbaa !47
  %43 = load i128, ptr %13, align 16, !tbaa !47
  %44 = trunc i128 %43 to i64
  %45 = getelementptr inbounds i64, ptr %28, i64 0
  store i64 %44, ptr %45, align 16, !tbaa !16
  %46 = load i128, ptr %13, align 16, !tbaa !47
  %47 = lshr i128 %46, 64
  %48 = trunc i128 %47 to i64
  %49 = zext i64 %48 to i128
  store i128 %49, ptr %14, align 16, !tbaa !47
  store i128 0, ptr %15, align 16, !tbaa !47
  store i16 1, ptr %10, align 2, !tbaa !32
  br label %50

50:                                               ; preds = %150, %31
  %51 = load i16, ptr %10, align 2, !tbaa !32
  %52 = zext i16 %51 to i32
  %53 = load ptr, ptr %4, align 8, !tbaa !3
  %54 = getelementptr inbounds nuw %struct.sp_int, ptr %53, i32 0, i32 0
  %55 = load i16, ptr %54, align 8, !tbaa !15
  %56 = zext i16 %55 to i32
  %57 = sub nsw i32 %56, 1
  %58 = load ptr, ptr %5, align 8, !tbaa !3
  %59 = getelementptr inbounds nuw %struct.sp_int, ptr %58, i32 0, i32 0
  %60 = load i16, ptr %59, align 8, !tbaa !15
  %61 = zext i16 %60 to i32
  %62 = sub nsw i32 %61, 1
  %63 = add nsw i32 %57, %62
  %64 = icmp sle i32 %52, %63
  br i1 %64, label %65, label %153

65:                                               ; preds = %50
  %66 = load i16, ptr %10, align 2, !tbaa !32
  %67 = zext i16 %66 to i32
  %68 = load ptr, ptr %5, align 8, !tbaa !3
  %69 = getelementptr inbounds nuw %struct.sp_int, ptr %68, i32 0, i32 0
  %70 = load i16, ptr %69, align 8, !tbaa !15
  %71 = zext i16 %70 to i32
  %72 = sub nsw i32 %71, 1
  %73 = sub nsw i32 %67, %72
  %74 = trunc i32 %73 to i16
  store i16 %74, ptr %8, align 2, !tbaa !32
  %75 = load i16, ptr %8, align 2, !tbaa !32
  %76 = zext i16 %75 to i32
  %77 = lshr i32 %76, 15
  %78 = sub i32 %77, 1
  %79 = trunc i32 %78 to i16
  %80 = zext i16 %79 to i32
  %81 = load i16, ptr %8, align 2, !tbaa !32
  %82 = zext i16 %81 to i32
  %83 = and i32 %82, %80
  %84 = trunc i32 %83 to i16
  store i16 %84, ptr %8, align 2, !tbaa !32
  %85 = load i16, ptr %10, align 2, !tbaa !32
  %86 = zext i16 %85 to i32
  %87 = load i16, ptr %8, align 2, !tbaa !32
  %88 = zext i16 %87 to i32
  %89 = sub nsw i32 %86, %88
  store i32 %89, ptr %9, align 4, !tbaa !8
  br label %90

90:                                               ; preds = %130, %65
  %91 = load i16, ptr %8, align 2, !tbaa !32
  %92 = zext i16 %91 to i32
  %93 = load ptr, ptr %4, align 8, !tbaa !3
  %94 = getelementptr inbounds nuw %struct.sp_int, ptr %93, i32 0, i32 0
  %95 = load i16, ptr %94, align 8, !tbaa !15
  %96 = zext i16 %95 to i32
  %97 = icmp slt i32 %92, %96
  br i1 %97, label %98, label %101

98:                                               ; preds = %90
  %99 = load i32, ptr %9, align 4, !tbaa !8
  %100 = icmp sge i32 %99, 0
  br label %101

101:                                              ; preds = %98, %90
  %102 = phi i1 [ false, %90 ], [ %100, %98 ]
  br i1 %102, label %103, label %135

103:                                              ; preds = %101
  %104 = load ptr, ptr %4, align 8, !tbaa !3
  %105 = getelementptr inbounds nuw %struct.sp_int, ptr %104, i32 0, i32 2
  %106 = load i16, ptr %8, align 2, !tbaa !32
  %107 = zext i16 %106 to i64
  %108 = getelementptr inbounds nuw [129 x i64], ptr %105, i64 0, i64 %107
  %109 = load i64, ptr %108, align 8, !tbaa !16
  %110 = zext i64 %109 to i128
  %111 = load ptr, ptr %5, align 8, !tbaa !3
  %112 = getelementptr inbounds nuw %struct.sp_int, ptr %111, i32 0, i32 2
  %113 = load i32, ptr %9, align 4, !tbaa !8
  %114 = sext i32 %113 to i64
  %115 = getelementptr inbounds [129 x i64], ptr %112, i64 0, i64 %114
  %116 = load i64, ptr %115, align 8, !tbaa !16
  %117 = zext i64 %116 to i128
  %118 = mul i128 %110, %117
  store i128 %118, ptr %13, align 16, !tbaa !47
  %119 = load i128, ptr %13, align 16, !tbaa !47
  %120 = trunc i128 %119 to i64
  %121 = zext i64 %120 to i128
  %122 = load i128, ptr %14, align 16, !tbaa !47
  %123 = add i128 %122, %121
  store i128 %123, ptr %14, align 16, !tbaa !47
  %124 = load i128, ptr %13, align 16, !tbaa !47
  %125 = lshr i128 %124, 64
  %126 = trunc i128 %125 to i64
  %127 = zext i64 %126 to i128
  %128 = load i128, ptr %15, align 16, !tbaa !47
  %129 = add i128 %128, %127
  store i128 %129, ptr %15, align 16, !tbaa !47
  br label %130

130:                                              ; preds = %103
  %131 = load i16, ptr %8, align 2, !tbaa !32
  %132 = add i16 %131, 1
  store i16 %132, ptr %8, align 2, !tbaa !32
  %133 = load i32, ptr %9, align 4, !tbaa !8
  %134 = add nsw i32 %133, -1
  store i32 %134, ptr %9, align 4, !tbaa !8
  br label %90, !llvm.loop !85

135:                                              ; preds = %101
  %136 = load i128, ptr %14, align 16, !tbaa !47
  %137 = trunc i128 %136 to i64
  %138 = load i16, ptr %10, align 2, !tbaa !32
  %139 = zext i16 %138 to i64
  %140 = getelementptr inbounds nuw i64, ptr %28, i64 %139
  store i64 %137, ptr %140, align 8, !tbaa !16
  %141 = load i128, ptr %14, align 16, !tbaa !47
  %142 = lshr i128 %141, 64
  store i128 %142, ptr %14, align 16, !tbaa !47
  %143 = load i128, ptr %15, align 16, !tbaa !47
  %144 = trunc i128 %143 to i64
  %145 = zext i64 %144 to i128
  %146 = load i128, ptr %14, align 16, !tbaa !47
  %147 = add i128 %146, %145
  store i128 %147, ptr %14, align 16, !tbaa !47
  %148 = load i128, ptr %15, align 16, !tbaa !47
  %149 = lshr i128 %148, 64
  store i128 %149, ptr %15, align 16, !tbaa !47
  br label %150

150:                                              ; preds = %135
  %151 = load i16, ptr %10, align 2, !tbaa !32
  %152 = add i16 %151, 1
  store i16 %152, ptr %10, align 2, !tbaa !32
  br label %50, !llvm.loop !86

153:                                              ; preds = %50
  %154 = load i128, ptr %14, align 16, !tbaa !47
  %155 = trunc i128 %154 to i64
  %156 = load i16, ptr %10, align 2, !tbaa !32
  %157 = zext i16 %156 to i64
  %158 = getelementptr inbounds nuw i64, ptr %28, i64 %157
  store i64 %155, ptr %158, align 8, !tbaa !16
  %159 = load i16, ptr %10, align 2, !tbaa !32
  %160 = zext i16 %159 to i32
  %161 = add nsw i32 %160, 1
  %162 = trunc i32 %161 to i16
  %163 = load ptr, ptr %6, align 8, !tbaa !3
  %164 = getelementptr inbounds nuw %struct.sp_int, ptr %163, i32 0, i32 0
  store i16 %162, ptr %164, align 8, !tbaa !15
  %165 = load ptr, ptr %6, align 8, !tbaa !3
  %166 = getelementptr inbounds nuw %struct.sp_int, ptr %165, i32 0, i32 2
  %167 = getelementptr inbounds [129 x i64], ptr %166, i64 0, i64 0
  %168 = load ptr, ptr %6, align 8, !tbaa !3
  %169 = getelementptr inbounds nuw %struct.sp_int, ptr %168, i32 0, i32 0
  %170 = load i16, ptr %169, align 8, !tbaa !15
  %171 = zext i16 %170 to i64
  %172 = mul i64 %171, 8
  call void @llvm.memcpy.p0.p0.i64(ptr align 8 %167, ptr align 16 %28, i64 %172, i1 false)
  br label %173

173:                                              ; preds = %153
  call void @llvm.lifetime.start.p0(i64 4, ptr %16) #8
  %174 = load ptr, ptr %6, align 8, !tbaa !3
  %175 = getelementptr inbounds nuw %struct.sp_int, ptr %174, i32 0, i32 0
  %176 = load i16, ptr %175, align 8, !tbaa !15
  %177 = zext i16 %176 to i32
  %178 = icmp sgt i32 %177, 0
  br i1 %178, label %179, label %208

179:                                              ; preds = %173
  %180 = load ptr, ptr %6, align 8, !tbaa !3
  %181 = getelementptr inbounds nuw %struct.sp_int, ptr %180, i32 0, i32 0
  %182 = load i16, ptr %181, align 8, !tbaa !15
  %183 = zext i16 %182 to i32
  %184 = sub nsw i32 %183, 1
  store i32 %184, ptr %16, align 4, !tbaa !8
  br label %185

185:                                              ; preds = %199, %179
  %186 = load i32, ptr %16, align 4, !tbaa !8
  %187 = icmp sge i32 %186, 0
  br i1 %187, label %188, label %196

188:                                              ; preds = %185
  %189 = load ptr, ptr %6, align 8, !tbaa !3
  %190 = getelementptr inbounds nuw %struct.sp_int, ptr %189, i32 0, i32 2
  %191 = load i32, ptr %16, align 4, !tbaa !8
  %192 = sext i32 %191 to i64
  %193 = getelementptr inbounds [129 x i64], ptr %190, i64 0, i64 %192
  %194 = load i64, ptr %193, align 8, !tbaa !16
  %195 = icmp eq i64 %194, 0
  br label %196

196:                                              ; preds = %188, %185
  %197 = phi i1 [ false, %185 ], [ %195, %188 ]
  br i1 %197, label %198, label %202

198:                                              ; preds = %196
  br label %199

199:                                              ; preds = %198
  %200 = load i32, ptr %16, align 4, !tbaa !8
  %201 = add nsw i32 %200, -1
  store i32 %201, ptr %16, align 4, !tbaa !8
  br label %185, !llvm.loop !87

202:                                              ; preds = %196
  %203 = load i32, ptr %16, align 4, !tbaa !8
  %204 = add nsw i32 %203, 1
  %205 = trunc i32 %204 to i16
  %206 = load ptr, ptr %6, align 8, !tbaa !3
  %207 = getelementptr inbounds nuw %struct.sp_int, ptr %206, i32 0, i32 0
  store i16 %205, ptr %207, align 8, !tbaa !15
  br label %208

208:                                              ; preds = %202, %173
  call void @llvm.lifetime.end.p0(i64 4, ptr %16) #8
  br label %209

209:                                              ; preds = %208
  br label %210

210:                                              ; preds = %209
  call void @llvm.lifetime.end.p0(i64 16, ptr %15) #8
  call void @llvm.lifetime.end.p0(i64 16, ptr %14) #8
  call void @llvm.lifetime.end.p0(i64 16, ptr %13) #8
  br label %211

211:                                              ; preds = %210, %3
  %212 = load i32, ptr %7, align 4, !tbaa !8
  %213 = load ptr, ptr %11, align 8
  call void @llvm.stackrestore.p0(ptr %213)
  call void @llvm.lifetime.end.p0(i64 2, ptr %10) #8
  call void @llvm.lifetime.end.p0(i64 4, ptr %9) #8
  call void @llvm.lifetime.end.p0(i64 2, ptr %8) #8
  call void @llvm.lifetime.end.p0(i64 4, ptr %7) #8
  ret i32 %212
}