; Function Attrs: nofree norecurse nosync nounwind memory(argmem: readwrite) uwtable
define internal fastcc void @_sp_mul(ptr noundef readonly captures(none) %0, ptr noundef readonly captures(none) %1, ptr noundef captures(none) %2) unnamed_addr #8 {
  %4 = load i16, ptr %0, align 8, !tbaa !12
  %5 = zext i16 %4 to i64
  %6 = load i16, ptr %1, align 8, !tbaa !12
  %7 = zext i16 %6 to i64
  %8 = add nuw nsw i64 %7, %5
  %9 = alloca i64, i64 %8, align 16
  %10 = getelementptr inbounds nuw i8, ptr %0, i64 8
  %11 = load i64, ptr %10, align 8, !tbaa !8
  %12 = zext i64 %11 to i128
  %13 = getelementptr inbounds nuw i8, ptr %1, i64 8
  %14 = load i64, ptr %13, align 8, !tbaa !8
  %15 = zext i64 %14 to i128
  %16 = mul nuw i128 %15, %12
  %17 = trunc i128 %16 to i64
  store i64 %17, ptr %9, align 16, !tbaa !8
  %18 = lshr i128 %16, 64
  %19 = zext i16 %4 to i32
  %20 = add nsw i32 %19, -1
  %21 = zext i16 %6 to i32
  %22 = add nsw i32 %21, -1
  %23 = add nsw i32 %20, %22
  %.not66 = icmp slt i32 %23, 1
  %extract.t = trunc nuw i128 %18 to i64
  br i1 %.not66, label %._crit_edge72, label %.lr.ph71

.lr.ph71:                                         ; preds = %3
  %24 = trunc i32 %22 to i16
  %25 = sub i16 2, %6
  br label %26

26:                                               ; preds = %.lr.ph71, %._crit_edge
  %indvars.iv = phi i16 [ %25, %.lr.ph71 ], [ %indvars.iv.next, %._crit_edge ]
  %27 = phi i32 [ 1, %.lr.ph71 ], [ %61, %._crit_edge ]
  %.05169 = phi i128 [ 0, %.lr.ph71 ], [ %59, %._crit_edge ]
  %.05268 = phi i128 [ %18, %.lr.ph71 ], [ %58, %._crit_edge ]
  %.05667 = phi i16 [ 1, %.lr.ph71 ], [ %60, %._crit_edge ]
  %28 = sub i16 %.05667, %24
  %29 = tail call i16 @llvm.smax.i16(i16 %28, i16 0)
  %30 = zext nneg i16 %29 to i32
  %31 = icmp ult i16 %29, %4
  %32 = icmp samesign uge i32 %27, %30
  %33 = select i1 %31, i1 %32, i1 false
  br i1 %33, label %.lr.ph.preheader, label %._crit_edge

.lr.ph.preheader:                                 ; preds = %26
  %smax = tail call i16 @llvm.smax.i16(i16 %indvars.iv, i16 0)
  %34 = zext i16 %.05667 to i64
  %35 = zext nneg i16 %smax to i64
  %36 = sub nsw i64 %34, %35
  %37 = and i64 %36, 4294967295
  %38 = zext nneg i16 %smax to i64
  br label %.lr.ph

.lr.ph:                                           ; preds = %.lr.ph.preheader, %.lr.ph
  %indvars.iv80 = phi i64 [ %37, %.lr.ph.preheader ], [ %indvars.iv.next81, %.lr.ph ]
  %indvars.iv78 = phi i64 [ %38, %.lr.ph.preheader ], [ %indvars.iv.next79, %.lr.ph ]
  %.164 = phi i128 [ %.05169, %.lr.ph.preheader ], [ %49, %.lr.ph ]
  %.15363 = phi i128 [ %.05268, %.lr.ph.preheader ], [ %47, %.lr.ph ]
  %39 = getelementptr inbounds nuw [129 x i64], ptr %10, i64 0, i64 %indvars.iv78
  %40 = load i64, ptr %39, align 8, !tbaa !8
  %41 = zext i64 %40 to i128
  %42 = getelementptr inbounds nuw [129 x i64], ptr %13, i64 0, i64 %indvars.iv80
  %43 = load i64, ptr %42, align 8, !tbaa !8
  %44 = zext i64 %43 to i128
  %45 = mul nuw i128 %44, %41
  %46 = and i128 %45, 18446744073709551615
  %47 = add i128 %46, %.15363
  %48 = lshr i128 %45, 64
  %49 = add i128 %48, %.164
  %indvars.iv.next79 = add nuw nsw i64 %indvars.iv78, 1
  %indvars.iv.next81 = add nsw i64 %indvars.iv80, -1
  %50 = icmp samesign ult i64 %indvars.iv.next79, %5
  %51 = icmp ne i64 %indvars.iv80, 0
  %52 = and i1 %50, %51
  br i1 %52, label %.lr.ph, label %._crit_edge, !llvm.loop !74

._crit_edge:                                      ; preds = %.lr.ph, %26
  %.153.lcssa = phi i128 [ %.05268, %26 ], [ %47, %.lr.ph ]
  %.1.lcssa = phi i128 [ %.05169, %26 ], [ %49, %.lr.ph ]
  %53 = trunc i128 %.153.lcssa to i64
  %54 = zext i16 %.05667 to i64
  %55 = getelementptr inbounds nuw i64, ptr %9, i64 %54
  store i64 %53, ptr %55, align 8, !tbaa !8
  %56 = lshr i128 %.153.lcssa, 64
  %57 = and i128 %.1.lcssa, 18446744073709551615
  %58 = add nuw nsw i128 %57, %56
  %59 = lshr i128 %.1.lcssa, 64
  %60 = add i16 %.05667, 1
  %61 = zext i16 %60 to i32
  %.not = icmp slt i32 %23, %61
  %indvars.iv.next = add i16 %indvars.iv, 1
  br i1 %.not, label %._crit_edge72.loopexit, label %26, !llvm.loop !75

._crit_edge72.loopexit:                           ; preds = %._crit_edge
  %extract.t75 = trunc i128 %58 to i64
  br label %._crit_edge72

._crit_edge72:                                    ; preds = %._crit_edge72.loopexit, %3
  %.056.lcssa = phi i16 [ 1, %3 ], [ %60, %._crit_edge72.loopexit ]
  %.052.lcssa.off0 = phi i64 [ %extract.t, %3 ], [ %extract.t75, %._crit_edge72.loopexit ]
  %62 = zext i16 %.056.lcssa to i64
  %63 = getelementptr inbounds nuw i64, ptr %9, i64 %62
  store i64 %.052.lcssa.off0, ptr %63, align 8, !tbaa !8
  %64 = add i16 %.056.lcssa, 1
  store i16 %64, ptr %2, align 8, !tbaa !12
  %65 = getelementptr inbounds nuw i8, ptr %2, i64 8
  %66 = zext i16 %64 to i64
  %67 = shl nuw nsw i64 %66, 3
  call void @llvm.memcpy.p0.p0.i64(ptr nonnull align 8 %65, ptr nonnull align 16 %9, i64 %67, i1 false)
  %.not60 = icmp eq i16 %64, 0
  br i1 %.not60, label %74, label %.preheader

.preheader:                                       ; preds = %._crit_edge72, %69
  %indvars.iv83 = phi i64 [ %indvars.iv.next84, %69 ], [ %66, %._crit_edge72 ]
  %68 = icmp sgt i64 %indvars.iv83, 0
  br i1 %68, label %69, label %.critedge

69:                                               ; preds = %.preheader
  %indvars.iv.next84 = add nsw i64 %indvars.iv83, -1
  %70 = getelementptr inbounds nuw [129 x i64], ptr %65, i64 0, i64 %indvars.iv.next84
  %71 = load i64, ptr %70, align 8, !tbaa !8
  %72 = icmp eq i64 %71, 0
  br i1 %72, label %.preheader, label %.critedge.split.loop.exit89, !llvm.loop !76

.critedge.split.loop.exit89:                      ; preds = %69
  %73 = trunc i64 %indvars.iv83 to i16
  br label %.critedge

.critedge:                                        ; preds = %.preheader, %.critedge.split.loop.exit89
  %.0.in.lcssa = phi i16 [ %73, %.critedge.split.loop.exit89 ], [ 0, %.preheader ]
  store i16 %.0.in.lcssa, ptr %2, align 8, !tbaa !12
  br label %74

74:                                               ; preds = %._crit_edge72, %.critedge
  ret void
}